target datalayout = "e-m:e-p270:32:32-p271:32:32-p272:64:64-i64:64-i128:128-f80:128-n8:16:32:64-S128"
target triple = "x86_64-pc-linux-gnu"

%struct.strbuf = type { i64, i64, ptr }
%struct.image = type { %struct.strbuf, ptr, i64, i64 }

@the_repository = external global ptr, align 8
@.str.203 = private unnamed_addr constant [30 x i8] c"unable to read blob object %s\00", align 1
@__const.image_init.empty = private unnamed_addr constant %struct.image { %struct.strbuf { i64 0, i64 0, ptr @strbuf_slopbuf }, ptr null, i64 0, i64 0 }, align 8

; Function Attrs: nounwind uwtable
define internal void @image_init(ptr noundef %0) #0 {
  %2 = alloca ptr, align 8
  %3 = alloca %struct.image, align 8
  store ptr %0, ptr %2, align 8, !tbaa !259
  call void @llvm.lifetime.start.p0(i64 48, ptr %3) #12
  call void @llvm.memcpy.p0.p0.i64(ptr align 8 %3, ptr align 8 @__const.image_init.empty, i64 48, i1 false)
  %4 = load ptr, ptr %2, align 8, !tbaa !259
  call void @llvm.memcpy.p0.p0.i64(ptr align 8 %4, ptr align 8 %3, i64 48, i1 false)
  call void @llvm.lifetime.end.p0(i64 48, ptr %3) #12
  ret void
}

; Function Attrs: nounwind uwtable
define internal void @image_clear(ptr noundef %0) #0 {
  %2 = alloca ptr, align 8
  store ptr %0, ptr %2, align 8, !tbaa !259
  %3 = load ptr, ptr %2, align 8, !tbaa !259
  %4 = getelementptr inbounds nuw %struct.image, ptr %3, i32 0, i32 0
  call void @strbuf_release(ptr noundef %4)
  %5 = load ptr, ptr %2, align 8, !tbaa !259
  %6 = getelementptr inbounds nuw %struct.image, ptr %5, i32 0, i32 1
  %7 = load ptr, ptr %6, align 8, !tbaa !247
  call void @free(ptr noundef %7) #12
  %8 = load ptr, ptr %2, align 8, !tbaa !259
  call void @image_init(ptr noundef %8)
  ret void
}

; Function Attrs: nounwind uwtable
define internal i32 @resolve_to(ptr noundef %0, ptr noundef %1) #0 {
  %3 = alloca ptr, align 8
  %4 = alloca ptr, align 8
  %5 = alloca i64, align 8
  %6 = alloca i32, align 4
  %7 = alloca ptr, align 8
  store ptr %0, ptr %3, align 8, !tbaa !259
  store ptr %1, ptr %4, align 8, !tbaa !268
  call void @llvm.lifetime.start.p0(i64 8, ptr %5) #12
  call void @llvm.lifetime.start.p0(i64 4, ptr %6) #12
  call void @llvm.lifetime.start.p0(i64 8, ptr %7) #12
  %8 = load ptr, ptr %3, align 8, !tbaa !259
  call void @image_clear(ptr noundef %8)
  %9 = load ptr, ptr @the_repository, align 8, !tbaa !9
  %10 = load ptr, ptr %4, align 8, !tbaa !268
  %11 = call ptr @repo_read_object_file(ptr noundef %9, ptr noundef %10, ptr noundef %6, ptr noundef %5)
  store ptr %11, ptr %7, align 8, !tbaa !11
  %12 = load ptr, ptr %7, align 8, !tbaa !11
  %13 = icmp ne ptr %12, null
  br i1 %13, label %14, label %17

14:                                               ; preds = %2
  %15 = load i32, ptr %6, align 4, !tbaa !39
  %16 = icmp ne i32 %15, 3
  br i1 %16, label %17, label %20

17:                                               ; preds = %14, %2
  %18 = load ptr, ptr %4, align 8, !tbaa !268
  %19 = call ptr @oid_to_hex(ptr noundef %18)
  call void (ptr, ...) @die(ptr noundef @.str.203, ptr noundef %19) #14
  unreachable

20:                                               ; preds = %14
  %21 = load ptr, ptr %3, align 8, !tbaa !259
  %22 = getelementptr inbounds nuw %struct.image, ptr %21, i32 0, i32 0
  %23 = load ptr, ptr %7, align 8, !tbaa !11
  %24 = load i64, ptr %5, align 8, !tbaa !87
  %25 = load i64, ptr %5, align 8, !tbaa !87
  %26 = add i64 %25, 1
  call void @strbuf_attach(ptr noundef %22, ptr noundef %23, i64 noundef %24, i64 noundef %26)
  call void @llvm.lifetime.end.p0(i64 8, ptr %7) #12
  call void @llvm.lifetime.end.p0(i64 4, ptr %6) #12
  call void @llvm.lifetime.end.p0(i64 8, ptr %5) #12
  ret i32 0
}