; Function Attrs: nounwind uwtable
define internal fastcc void @resolve_to(ptr noundef nonnull %0, ptr noundef nonnull %1) unnamed_addr #0 {
  %3 = alloca i64, align 8
  %4 = alloca i32, align 4
  call void @llvm.lifetime.start.p0(i64 8, ptr nonnull %3) #21
  call void @llvm.lifetime.start.p0(i64 4, ptr nonnull %4) #21
  tail call void @strbuf_release(ptr noundef nonnull %0) #21
  %5 = getelementptr inbounds nuw i8, ptr %0, i64 24
  %6 = load ptr, ptr %5, align 8, !tbaa !172
  tail call void @free(ptr noundef %6) #21
  tail call void @llvm.memcpy.p0.p0.i64(ptr noundef nonnull align 8 dereferenceable(48) %0, ptr noundef nonnull align 8 dereferenceable(48) @__const.image_init.empty, i64 48, i1 false)
  %7 = load ptr, ptr @the_repository, align 8, !tbaa !31
  %8 = call ptr @repo_read_object_file(ptr noundef %7, ptr noundef nonnull %1, ptr noundef nonnull %4, ptr noundef nonnull %3) #21
  %9 = icmp eq ptr %8, null
  %10 = load i32, ptr %4, align 4
  %11 = icmp ne i32 %10, 3
  %or.cond = select i1 %9, i1 true, i1 %11
  br i1 %or.cond, label %12, label %14

12:                                               ; preds = %2
  %13 = call ptr @oid_to_hex(ptr noundef nonnull %1) #21
  call void (ptr, ...) @die(ptr noundef nonnull @.str.203, ptr noundef %13) #25
  unreachable

14:                                               ; preds = %2
  %15 = load i64, ptr %3, align 8, !tbaa !138
  %16 = add i64 %15, 1
  call void @strbuf_attach(ptr noundef nonnull %0, ptr noundef nonnull %8, i64 noundef %15, i64 noundef %16) #21
  call void @llvm.lifetime.end.p0(i64 4, ptr nonnull %4) #21
  call void @llvm.lifetime.end.p0(i64 8, ptr nonnull %3) #21
  ret void
}